; ModuleID = '32/1584.c'
source_filename = "32/1584.c"
target datalayout = "e-m:e-p270:32:32-p271:32:32-p272:64:64-i64:64-f80:128-n8:16:32:64-S128"
target triple = "x86_64-pc-linux-gnu"

@.str = private unnamed_addr constant [3 x i8] c"%d\00", align 1
@.str.1 = private unnamed_addr constant [3 x i8] c"%s\00", align 1
@.str.2 = private unnamed_addr constant [4 x i8] c"%s\0A\00", align 1

; Function Attrs: noinline nounwind uwtable
define dso_local void @main() #0 {
  %1 = alloca i32, align 4
  %2 = alloca i32, align 4
  %3 = alloca i32, align 4
  %4 = alloca [100 x i32], align 16
  %5 = alloca [100 x i32], align 16
  %6 = alloca [100 x [100 x i8]], align 16
  %7 = alloca [100 x [100 x i8]], align 16
  %8 = call i32 (i8*, ...) @__isoc99_scanf(i8* getelementptr inbounds ([3 x i8], [3 x i8]* @.str, i64 0, i64 0), i32* %1)
  store i32 0, i32* %2, align 4
  br label %9

9:                                                ; preds = %24, %0
  %10 = load i32, i32* %2, align 4
  %11 = load i32, i32* %1, align 4
  %12 = icmp slt i32 %10, %11
  br i1 %12, label %13, label %27

13:                                               ; preds = %9
  %14 = load i32, i32* %2, align 4
  %15 = sext i32 %14 to i64
  %16 = getelementptr inbounds [100 x [100 x i8]], [100 x [100 x i8]]* %6, i64 0, i64 %15
  %17 = getelementptr inbounds [100 x i8], [100 x i8]* %16, i64 0, i64 0
  %18 = call i32 (i8*, ...) @__isoc99_scanf(i8* getelementptr inbounds ([3 x i8], [3 x i8]* @.str.1, i64 0, i64 0), i8* %17)
  %19 = load i32, i32* %2, align 4
  %20 = sext i32 %19 to i64
  %21 = getelementptr inbounds [100 x [100 x i8]], [100 x [100 x i8]]* %7, i64 0, i64 %20
  %22 = getelementptr inbounds [100 x i8], [100 x i8]* %21, i64 0, i64 0
  %23 = call i32 (i8*, ...) @__isoc99_scanf(i8* getelementptr inbounds ([3 x i8], [3 x i8]* @.str.1, i64 0, i64 0), i8* %22)
  br label %24

24:                                               ; preds = %13
  %25 = load i32, i32* %2, align 4
  %26 = add nsw i32 %25, 1
  store i32 %26, i32* %2, align 4
  br label %9

27:                                               ; preds = %9
  store i32 0, i32* %2, align 4
  br label %28

28:                                               ; preds = %203, %27
  %29 = load i32, i32* %2, align 4
  %30 = load i32, i32* %1, align 4
  %31 = icmp slt i32 %29, %30
  br i1 %31, label %32, label %206

32:                                               ; preds = %28
  %33 = load i32, i32* %2, align 4
  %34 = sext i32 %33 to i64
  %35 = getelementptr inbounds [100 x [100 x i8]], [100 x [100 x i8]]* %6, i64 0, i64 %34
  %36 = getelementptr inbounds [100 x i8], [100 x i8]* %35, i64 0, i64 0
  %37 = call i64 @strlen(i8* %36) #3
  %38 = trunc i64 %37 to i32
  %39 = load i32, i32* %2, align 4
  %40 = sext i32 %39 to i64
  %41 = getelementptr inbounds [100 x i32], [100 x i32]* %4, i64 0, i64 %40
  store i32 %38, i32* %41, align 4
  %42 = load i32, i32* %2, align 4
  %43 = sext i32 %42 to i64
  %44 = getelementptr inbounds [100 x [100 x i8]], [100 x [100 x i8]]* %7, i64 0, i64 %43
  %45 = getelementptr inbounds [100 x i8], [100 x i8]* %44, i64 0, i64 0
  %46 = call i64 @strlen(i8* %45) #3
  %47 = trunc i64 %46 to i32
  %48 = load i32, i32* %2, align 4
  %49 = sext i32 %48 to i64
  %50 = getelementptr inbounds [100 x i32], [100 x i32]* %5, i64 0, i64 %49
  store i32 %47, i32* %50, align 4
  store i32 1, i32* %3, align 4
  br label %51

51:                                               ; preds = %199, %32
  %52 = load i32, i32* %3, align 4
  %53 = load i32, i32* %2, align 4
  %54 = sext i32 %53 to i64
  %55 = getelementptr inbounds [100 x i32], [100 x i32]* %5, i64 0, i64 %54
  %56 = load i32, i32* %55, align 4
  %57 = add nsw i32 %56, 1
  %58 = icmp slt i32 %52, %57
  br i1 %58, label %59, label %202

59:                                               ; preds = %51
  %60 = load i32, i32* %2, align 4
  %61 = sext i32 %60 to i64
  %62 = getelementptr inbounds [100 x [100 x i8]], [100 x [100 x i8]]* %6, i64 0, i64 %61
  %63 = load i32, i32* %2, align 4
  %64 = sext i32 %63 to i64
  %65 = getelementptr inbounds [100 x i32], [100 x i32]* %4, i64 0, i64 %64
  %66 = load i32, i32* %65, align 4
  %67 = load i32, i32* %3, align 4
  %68 = sub nsw i32 %66, %67
  %69 = sext i32 %68 to i64
  %70 = getelementptr inbounds [100 x i8], [100 x i8]* %62, i64 0, i64 %69
  %71 = load i8, i8* %70, align 1
  %72 = sext i8 %71 to i32
  %73 = load i32, i32* %2, align 4
  %74 = sext i32 %73 to i64
  %75 = getelementptr inbounds [100 x [100 x i8]], [100 x [100 x i8]]* %7, i64 0, i64 %74
  %76 = load i32, i32* %2, align 4
  %77 = sext i32 %76 to i64
  %78 = getelementptr inbounds [100 x i32], [100 x i32]* %5, i64 0, i64 %77
  %79 = load i32, i32* %78, align 4
  %80 = load i32, i32* %3, align 4
  %81 = sub nsw i32 %79, %80
  %82 = sext i32 %81 to i64
  %83 = getelementptr inbounds [100 x i8], [100 x i8]* %75, i64 0, i64 %82
  %84 = load i8, i8* %83, align 1
  %85 = sext i8 %84 to i32
  %86 = icmp sge i32 %72, %85
  br i1 %86, label %87, label %128

87:                                               ; preds = %59
  %88 = load i32, i32* %2, align 4
  %89 = sext i32 %88 to i64
  %90 = getelementptr inbounds [100 x [100 x i8]], [100 x [100 x i8]]* %6, i64 0, i64 %89
  %91 = load i32, i32* %2, align 4
  %92 = sext i32 %91 to i64
  %93 = getelementptr inbounds [100 x i32], [100 x i32]* %4, i64 0, i64 %92
  %94 = load i32, i32* %93, align 4
  %95 = load i32, i32* %3, align 4
  %96 = sub nsw i32 %94, %95
  %97 = sext i32 %96 to i64
  %98 = getelementptr inbounds [100 x i8], [100 x i8]* %90, i64 0, i64 %97
  %99 = load i8, i8* %98, align 1
  %100 = sext i8 %99 to i32
  %101 = load i32, i32* %2, align 4
  %102 = sext i32 %101 to i64
  %103 = getelementptr inbounds [100 x [100 x i8]], [100 x [100 x i8]]* %7, i64 0, i64 %102
  %104 = load i32, i32* %2, align 4
  %105 = sext i32 %104 to i64
  %106 = getelementptr inbounds [100 x i32], [100 x i32]* %5, i64 0, i64 %105
  %107 = load i32, i32* %106, align 4
  %108 = load i32, i32* %3, align 4
  %109 = sub nsw i32 %107, %108
  %110 = sext i32 %109 to i64
  %111 = getelementptr inbounds [100 x i8], [100 x i8]* %103, i64 0, i64 %110
  %112 = load i8, i8* %111, align 1
  %113 = sext i8 %112 to i32
  %114 = sub nsw i32 %100, %113
  %115 = add nsw i32 %114, 48
  %116 = trunc i32 %115 to i8
  %117 = load i32, i32* %2, align 4
  %118 = sext i32 %117 to i64
  %119 = getelementptr inbounds [100 x [100 x i8]], [100 x [100 x i8]]* %6, i64 0, i64 %118
  %120 = load i32, i32* %2, align 4
  %121 = sext i32 %120 to i64
  %122 = getelementptr inbounds [100 x i32], [100 x i32]* %4, i64 0, i64 %121
  %123 = load i32, i32* %122, align 4
  %124 = load i32, i32* %3, align 4
  %125 = sub nsw i32 %123, %124
  %126 = sext i32 %125 to i64
  %127 = getelementptr inbounds [100 x i8], [100 x i8]* %119, i64 0, i64 %126
  store i8 %116, i8* %127, align 1
  br label %198

128:                                              ; preds = %59
  %129 = load i32, i32* %2, align 4
  %130 = sext i32 %129 to i64
  %131 = getelementptr inbounds [100 x [100 x i8]], [100 x [100 x i8]]* %6, i64 0, i64 %130
  %132 = load i32, i32* %2, align 4
  %133 = sext i32 %132 to i64
  %134 = getelementptr inbounds [100 x i32], [100 x i32]* %4, i64 0, i64 %133
  %135 = load i32, i32* %134, align 4
  %136 = load i32, i32* %3, align 4
  %137 = sub nsw i32 %135, %136
  %138 = sub nsw i32 %137, 1
  %139 = sext i32 %138 to i64
  %140 = getelementptr inbounds [100 x i8], [100 x i8]* %131, i64 0, i64 %139
  %141 = load i8, i8* %140, align 1
  %142 = sext i8 %141 to i32
  %143 = sub nsw i32 %142, 1
  %144 = trunc i32 %143 to i8
  %145 = load i32, i32* %2, align 4
  %146 = sext i32 %145 to i64
  %147 = getelementptr inbounds [100 x [100 x i8]], [100 x [100 x i8]]* %6, i64 0, i64 %146
  %148 = load i32, i32* %2, align 4
  %149 = sext i32 %148 to i64
  %150 = getelementptr inbounds [100 x i32], [100 x i32]* %4, i64 0, i64 %149
  %151 = load i32, i32* %150, align 4
  %152 = load i32, i32* %3, align 4
  %153 = sub nsw i32 %151, %152
  %154 = sub nsw i32 %153, 1
  %155 = sext i32 %154 to i64
  %156 = getelementptr inbounds [100 x i8], [100 x i8]* %147, i64 0, i64 %155
  store i8 %144, i8* %156, align 1
  %157 = load i32, i32* %2, align 4
  %158 = sext i32 %157 to i64
  %159 = getelementptr inbounds [100 x [100 x i8]], [100 x [100 x i8]]* %6, i64 0, i64 %158
  %160 = load i32, i32* %2, align 4
  %161 = sext i32 %160 to i64
  %162 = getelementptr inbounds [100 x i32], [100 x i32]* %4, i64 0, i64 %161
  %163 = load i32, i32* %162, align 4
  %164 = load i32, i32* %3, align 4
  %165 = sub nsw i32 %163, %164
  %166 = sext i32 %165 to i64
  %167 = getelementptr inbounds [100 x i8], [100 x i8]* %159, i64 0, i64 %166
  %168 = load i8, i8* %167, align 1
  %169 = sext i8 %168 to i32
  %170 = add nsw i32 %169, 10
  %171 = load i32, i32* %2, align 4
  %172 = sext i32 %171 to i64
  %173 = getelementptr inbounds [100 x [100 x i8]], [100 x [100 x i8]]* %7, i64 0, i64 %172
  %174 = load i32, i32* %2, align 4
  %175 = sext i32 %174 to i64
  %176 = getelementptr inbounds [100 x i32], [100 x i32]* %5, i64 0, i64 %175
  %177 = load i32, i32* %176, align 4
  %178 = load i32, i32* %3, align 4
  %179 = sub nsw i32 %177, %178
  %180 = sext i32 %179 to i64
  %181 = getelementptr inbounds [100 x i8], [100 x i8]* %173, i64 0, i64 %180
  %182 = load i8, i8* %181, align 1
  %183 = sext i8 %182 to i32
  %184 = sub nsw i32 %170, %183
  %185 = add nsw i32 %184, 48
  %186 = trunc i32 %185 to i8
  %187 = load i32, i32* %2, align 4
  %188 = sext i32 %187 to i64
  %189 = getelementptr inbounds [100 x [100 x i8]], [100 x [100 x i8]]* %6, i64 0, i64 %188
  %190 = load i32, i32* %2, align 4
  %191 = sext i32 %190 to i64
  %192 = getelementptr inbounds [100 x i32], [100 x i32]* %4, i64 0, i64 %191
  %193 = load i32, i32* %192, align 4
  %194 = load i32, i32* %3, align 4
  %195 = sub nsw i32 %193, %194
  %196 = sext i32 %195 to i64
  %197 = getelementptr inbounds [100 x i8], [100 x i8]* %189, i64 0, i64 %196
  store i8 %186, i8* %197, align 1
  br label %198

198:                                              ; preds = %128, %87
  br label %199

199:                                              ; preds = %198
  %200 = load i32, i32* %3, align 4
  %201 = add nsw i32 %200, 1
  store i32 %201, i32* %3, align 4
  br label %51

202:                                              ; preds = %51
  br label %203

203:                                              ; preds = %202
  %204 = load i32, i32* %2, align 4
  %205 = add nsw i32 %204, 1
  store i32 %205, i32* %2, align 4
  br label %28

206:                                              ; preds = %28
  store i32 0, i32* %2, align 4
  br label %207

207:                                              ; preds = %217, %206
  %208 = load i32, i32* %2, align 4
  %209 = load i32, i32* %1, align 4
  %210 = icmp slt i32 %208, %209
  br i1 %210, label %211, label %220

211:                                              ; preds = %207
  %212 = load i32, i32* %2, align 4
  %213 = sext i32 %212 to i64
  %214 = getelementptr inbounds [100 x [100 x i8]], [100 x [100 x i8]]* %6, i64 0, i64 %213
  %215 = getelementptr inbounds [100 x i8], [100 x i8]* %214, i64 0, i64 0
  %216 = call i32 (i8*, ...) @printf(i8* getelementptr inbounds ([4 x i8], [4 x i8]* @.str.2, i64 0, i64 0), i8* %215)
  br label %217

217:                                              ; preds = %211
  %218 = load i32, i32* %2, align 4
  %219 = add nsw i32 %218, 1
  store i32 %219, i32* %2, align 4
  br label %207

220:                                              ; preds = %207
  ret void
}

declare dso_local i32 @__isoc99_scanf(i8*, ...) #1

; Function Attrs: nounwind readonly
declare dso_local i64 @strlen(i8*) #2

declare dso_local i32 @printf(i8*, ...) #1


!llvm.module.flags = !{!0}
!llvm.ident = !{!1}

!0 = !{i32 1, !"wchar_size", i32 4}
!1 = !{!"clang version 10.0.0-4ubuntu1 "}
