; ModuleID = 'source-C-CXX/31/1584.c'
source_filename = "source-C-CXX/31/1584.c"
target datalayout = "e-m:e-p270:32:32-p271:32:32-p272:64:64-i64:64-f80:128-n8:16:32:64-S128"
target triple = "x86_64-pc-linux-gnu"

@.str = private unnamed_addr constant [3 x i8] c"%d\00", align 1
@.str.1 = private unnamed_addr constant [3 x i8] c"%s\00", align 1

; Function Attrs: nofree nounwind sspstrong uwtable
define dso_local void @main() local_unnamed_addr #0 {
  %1 = alloca i32, align 4
  %2 = alloca [100 x [100 x i8]], align 16
  %3 = alloca [100 x [100 x i8]], align 16
  %4 = bitcast i32* %1 to i8*
  call void @llvm.lifetime.start.p0i8(i64 4, i8* nonnull %4) #5
  %5 = getelementptr inbounds [100 x [100 x i8]], [100 x [100 x i8]]* %2, i64 0, i64 0, i64 0
  call void @llvm.lifetime.start.p0i8(i64 10000, i8* nonnull %5) #5
  %6 = getelementptr inbounds [100 x [100 x i8]], [100 x [100 x i8]]* %3, i64 0, i64 0, i64 0
  call void @llvm.lifetime.start.p0i8(i64 10000, i8* nonnull %6) #5
  %7 = call i32 (i8*, ...) @__isoc99_scanf(i8* getelementptr inbounds ([3 x i8], [3 x i8]* @.str, i64 0, i64 0), i32* nonnull %1)
  %8 = load i32, i32* %1, align 4, !tbaa !5
  %9 = icmp sgt i32 %8, 0
  br i1 %9, label %14, label %72

10:                                               ; preds = %14
  %11 = icmp sgt i32 %21, 0
  br i1 %11, label %12, label %72

12:                                               ; preds = %10
  %13 = zext i32 %21 to i64
  br label %25

14:                                               ; preds = %0, %14
  %15 = phi i64 [ %20, %14 ], [ 0, %0 ]
  %16 = getelementptr inbounds [100 x [100 x i8]], [100 x [100 x i8]]* %2, i64 0, i64 %15, i64 0
  %17 = call i32 (i8*, ...) @__isoc99_scanf(i8* getelementptr inbounds ([3 x i8], [3 x i8]* @.str.1, i64 0, i64 0), i8* nonnull %16)
  %18 = getelementptr inbounds [100 x [100 x i8]], [100 x [100 x i8]]* %3, i64 0, i64 %15, i64 0
  %19 = call i32 (i8*, ...) @__isoc99_scanf(i8* getelementptr inbounds ([3 x i8], [3 x i8]* @.str.1, i64 0, i64 0), i8* nonnull %18)
  %20 = add nuw nsw i64 %15, 1
  %21 = load i32, i32* %1, align 4, !tbaa !5
  %22 = sext i32 %21 to i64
  %23 = icmp slt i64 %20, %22
  br i1 %23, label %14, label %10, !llvm.loop !9

24:                                               ; preds = %61
  br i1 %11, label %64, label %72

25:                                               ; preds = %12, %61
  %26 = phi i64 [ 0, %12 ], [ %62, %61 ]
  %27 = getelementptr inbounds [100 x [100 x i8]], [100 x [100 x i8]]* %3, i64 0, i64 %26, i64 0
  %28 = call i64 @strlen(i8* noundef nonnull %27) #6
  %29 = trunc i64 %28 to i32
  %30 = icmp slt i32 %29, 1
  br i1 %30, label %61, label %31

31:                                               ; preds = %25
  %32 = getelementptr inbounds [100 x [100 x i8]], [100 x [100 x i8]]* %2, i64 0, i64 %26, i64 0
  %33 = call i64 @strlen(i8* noundef nonnull %32) #6
  %34 = shl i64 %33, 32
  %35 = ashr exact i64 %34, 32
  %36 = shl i64 %28, 32
  %37 = ashr exact i64 %36, 32
  %38 = add i64 %28, 1
  %39 = and i64 %38, 4294967295
  br label %40

40:                                               ; preds = %31, %55
  %41 = phi i64 [ 1, %31 ], [ %59, %55 ]
  %42 = sub nsw i64 %35, %41
  %43 = getelementptr inbounds [100 x [100 x i8]], [100 x [100 x i8]]* %2, i64 0, i64 %26, i64 %42
  %44 = load i8, i8* %43, align 1, !tbaa !11
  %45 = sub nsw i64 %37, %41
  %46 = getelementptr inbounds [100 x [100 x i8]], [100 x [100 x i8]]* %3, i64 0, i64 %26, i64 %45
  %47 = load i8, i8* %46, align 1, !tbaa !11
  %48 = icmp slt i8 %44, %47
  br i1 %48, label %49, label %55

49:                                               ; preds = %40
  %50 = add nsw i64 %42, -1
  %51 = getelementptr inbounds [100 x [100 x i8]], [100 x [100 x i8]]* %2, i64 0, i64 %26, i64 %50
  %52 = load i8, i8* %51, align 1, !tbaa !11
  %53 = add i8 %52, -1
  store i8 %53, i8* %51, align 1, !tbaa !11
  %54 = add i8 %44, 10
  br label %55

55:                                               ; preds = %40, %49
  %56 = phi i8 [ %54, %49 ], [ %44, %40 ]
  %57 = sub i8 48, %47
  %58 = add i8 %57, %56
  store i8 %58, i8* %43, align 1, !tbaa !11
  %59 = add nuw nsw i64 %41, 1
  %60 = icmp eq i64 %59, %39
  br i1 %60, label %61, label %40, !llvm.loop !12

61:                                               ; preds = %55, %25
  %62 = add nuw nsw i64 %26, 1
  %63 = icmp eq i64 %62, %13
  br i1 %63, label %24, label %25, !llvm.loop !13

64:                                               ; preds = %24, %64
  %65 = phi i64 [ %68, %64 ], [ 0, %24 ]
  %66 = getelementptr inbounds [100 x [100 x i8]], [100 x [100 x i8]]* %2, i64 0, i64 %65, i64 0
  %67 = call i32 @puts(i8* nonnull %66)
  %68 = add nuw nsw i64 %65, 1
  %69 = load i32, i32* %1, align 4, !tbaa !5
  %70 = sext i32 %69 to i64
  %71 = icmp slt i64 %68, %70
  br i1 %71, label %64, label %72, !llvm.loop !14

72:                                               ; preds = %64, %10, %0, %24
  call void @llvm.lifetime.end.p0i8(i64 10000, i8* nonnull %6) #5
  call void @llvm.lifetime.end.p0i8(i64 10000, i8* nonnull %5) #5
  call void @llvm.lifetime.end.p0i8(i64 4, i8* nonnull %4) #5
  ret void
}

; Function Attrs: argmemonly mustprogress nofree nosync nounwind willreturn
declare void @llvm.lifetime.start.p0i8(i64 immarg, i8* nocapture) #1

; Function Attrs: nofree nounwind
declare noundef i32 @__isoc99_scanf(i8* nocapture noundef readonly, ...) local_unnamed_addr #2

; Function Attrs: argmemonly mustprogress nofree nounwind readonly willreturn
declare i64 @strlen(i8* nocapture) local_unnamed_addr #3

; Function Attrs: argmemonly mustprogress nofree nosync nounwind willreturn
declare void @llvm.lifetime.end.p0i8(i64 immarg, i8* nocapture) #1

; Function Attrs: nofree nounwind
declare noundef i32 @puts(i8* nocapture noundef readonly) local_unnamed_addr #4


!llvm.module.flags = !{!0, !1, !2, !3}
!llvm.ident = !{!4}

!0 = !{i32 1, !"wchar_size", i32 4}
!1 = !{i32 7, !"PIC Level", i32 2}
!2 = !{i32 7, !"PIE Level", i32 2}
!3 = !{i32 7, !"uwtable", i32 1}
!4 = !{!"clang version 13.0.0"}
!5 = !{!6, !6, i64 0}
!6 = !{!"int", !7, i64 0}
!7 = !{!"omnipotent char", !8, i64 0}
!8 = !{!"Simple C/C++ TBAA"}
!9 = distinct !{!9, !10}
!10 = !{!"llvm.loop.mustprogress"}
!11 = !{!7, !7, i64 0}
!12 = distinct !{!12, !10}
!13 = distinct !{!13, !10}
!14 = distinct !{!14, !10}
